
Discarded input sections

 .text          0x00000000       0x14 C:\Users\wywyw\AppData\Local\Temp\ccU6rhqY.o
 .data          0x00000000        0x0 C:\Users\wywyw\AppData\Local\Temp\ccU6rhqY.o
 .bss           0x00000000        0x0 C:\Users\wywyw\AppData\Local\Temp\ccU6rhqY.o
 .text          0x00000000        0x0 C:\Users\wywyw\AppData\Local\Temp\ccb5ZNxs.o
 .data          0x00000000        0x0 C:\Users\wywyw\AppData\Local\Temp\ccb5ZNxs.o
 .bss           0x00000000        0x0 C:\Users\wywyw\AppData\Local\Temp\ccb5ZNxs.o
 .data.SystemCoreClock
                0x00000000        0x4 C:\Users\wywyw\AppData\Local\Temp\ccb5ZNxs.o
 .text          0x00000000        0x0 C:\Users\wywyw\AppData\Local\Temp\cc6EPTAy.o
 .data          0x00000000        0x0 C:\Users\wywyw\AppData\Local\Temp\cc6EPTAy.o
 .bss           0x00000000        0x0 C:\Users\wywyw\AppData\Local\Temp\cc6EPTAy.o
 .debug_line    0x00000000        0x0 C:\Users\wywyw\AppData\Local\Temp\cc6EPTAy.o
 .debug_str     0x00000000       0xc4 C:\Users\wywyw\AppData\Local\Temp\cc6EPTAy.o
 .comment       0x00000000       0x44 C:\Users\wywyw\AppData\Local\Temp\cc6EPTAy.o
 .ARM.attributes
                0x00000000       0x2d C:\Users\wywyw\AppData\Local\Temp\cc6EPTAy.o

Memory Configuration

Name             Origin             Length             Attributes
RAM              0x20000000         0x00005000         xrw
FLASH            0x08000000         0x00010000         xr
*default*        0x00000000         0xffffffff

Linker script and memory map

LOAD C:\Users\wywyw\AppData\Local\Temp\ccU6rhqY.o
LOAD C:\Users\wywyw\AppData\Local\Temp\ccb5ZNxs.o
LOAD C:\Users\wywyw\AppData\Local\Temp\cc6EPTAy.o
START GROUP
LOAD C:/ST/STM32CubeIDE_1.19.0/STM32CubeIDE/plugins/com.st.stm32cube.ide.mcu.externaltools.gnu-tools-for-stm32.13.3.rel1.win32_1.0.0.202411081344/tools/bin/../lib/gcc/arm-none-eabi/13.3.1/thumb/v7-m/nofp\libgcc.a
LOAD C:/ST/STM32CubeIDE_1.19.0/STM32CubeIDE/plugins/com.st.stm32cube.ide.mcu.externaltools.gnu-tools-for-stm32.13.3.rel1.win32_1.0.0.202411081344/tools/bin/../lib/gcc/arm-none-eabi/13.3.1/../../../../arm-none-eabi/lib/thumb/v7-m/nofp\libg_nano.a
LOAD C:/ST/STM32CubeIDE_1.19.0/STM32CubeIDE/plugins/com.st.stm32cube.ide.mcu.externaltools.gnu-tools-for-stm32.13.3.rel1.win32_1.0.0.202411081344/tools/bin/../lib/gcc/arm-none-eabi/13.3.1/../../../../arm-none-eabi/lib/thumb/v7-m/nofp\libc_nano.a
END GROUP
START GROUP
LOAD C:/ST/STM32CubeIDE_1.19.0/STM32CubeIDE/plugins/com.st.stm32cube.ide.mcu.externaltools.gnu-tools-for-stm32.13.3.rel1.win32_1.0.0.202411081344/tools/bin/../lib/gcc/arm-none-eabi/13.3.1/thumb/v7-m/nofp\libgcc.a
LOAD C:/ST/STM32CubeIDE_1.19.0/STM32CubeIDE/plugins/com.st.stm32cube.ide.mcu.externaltools.gnu-tools-for-stm32.13.3.rel1.win32_1.0.0.202411081344/tools/bin/../lib/gcc/arm-none-eabi/13.3.1/../../../../arm-none-eabi/lib/thumb/v7-m/nofp\libc_nano.a
END GROUP
                0x20005000                        _estack = 0x20005000
                0x00000000                        _Min_Heap_Size = 0x0
                0x00000400                        _Min_Stack_Size = 0x400

.isr_vector     0x08000000       0xec
                0x08000000                        . = ALIGN (0x4)
 *(.isr_vector)
 .isr_vector    0x08000000       0xec C:\Users\wywyw\AppData\Local\Temp\ccU6rhqY.o
                0x08000000                g_pfnVectors
                0x080000ec                        . = ALIGN (0x4)

.text           0x080000ec       0x90
                0x080000ec                        . = ALIGN (0x4)
 *(.text)
 *(.text*)
 .text.Reset_Handler
                0x080000ec       0x48 C:\Users\wywyw\AppData\Local\Temp\ccU6rhqY.o
                0x080000ec                Reset_Handler
 .text.Default_Handler
                0x08000134        0x2 C:\Users\wywyw\AppData\Local\Temp\ccU6rhqY.o
                0x08000134                RTC_Alarm_IRQHandler
                0x08000134                EXTI2_IRQHandler
                0x08000134                DebugMon_Handler
                0x08000134                TIM1_CC_IRQHandler
                0x08000134                HardFault_Handler
                0x08000134                SysTick_Handler
                0x08000134                PVD_IRQHandler
                0x08000134                PendSV_Handler
                0x08000134                NMI_Handler
                0x08000134                EXTI3_IRQHandler
                0x08000134                EXTI0_IRQHandler
                0x08000134                I2C2_EV_IRQHandler
                0x08000134                UsageFault_Handler
                0x08000134                ADC1_2_IRQHandler
                0x08000134                SPI1_IRQHandler
                0x08000134                TAMPER_IRQHandler
                0x08000134                DMA1_Channel4_IRQHandler
                0x08000134                USART3_IRQHandler
                0x08000134                RTC_IRQHandler
                0x08000134                DMA1_Channel7_IRQHandler
                0x08000134                CAN1_RX1_IRQHandler
                0x08000134                TIM4_IRQHandler
                0x08000134                I2C1_EV_IRQHandler
                0x08000134                DMA1_Channel6_IRQHandler
                0x08000134                TIM3_IRQHandler
                0x08000134                RCC_IRQHandler
                0x08000134                TIM1_TRG_COM_IRQHandler
                0x08000134                DMA1_Channel1_IRQHandler
                0x08000134                Default_Handler
                0x08000134                EXTI15_10_IRQHandler
                0x08000134                EXTI9_5_IRQHandler
                0x08000134                SPI2_IRQHandler
                0x08000134                MemManage_Handler
                0x08000134                SVC_Handler
                0x08000134                DMA1_Channel5_IRQHandler
                0x08000134                EXTI4_IRQHandler
                0x08000134                USB_LP_CAN1_RX0_IRQHandler
                0x08000134                USB_HP_CAN1_TX_IRQHandler
                0x08000134                DMA1_Channel3_IRQHandler
                0x08000134                TIM1_UP_IRQHandler
                0x08000134                WWDG_IRQHandler
                0x08000134                TIM2_IRQHandler
                0x08000134                TIM1_BRK_IRQHandler
                0x08000134                EXTI1_IRQHandler
                0x08000134                USART2_IRQHandler
                0x08000134                I2C2_ER_IRQHandler
                0x08000134                DMA1_Channel2_IRQHandler
                0x08000134                CAN1_SCE_IRQHandler
                0x08000134                FLASH_IRQHandler
                0x08000134                BusFault_Handler
                0x08000134                USART1_IRQHandler
                0x08000134                I2C1_ER_IRQHandler
                0x08000134                USBWakeUp_IRQHandler
 *fill*         0x08000136        0x2 
 .text.SystemInit
                0x08000138       0x40 C:\Users\wywyw\AppData\Local\Temp\ccb5ZNxs.o
                0x08000138                SystemInit
 .text.__libc_init_array
                0x08000178        0x2 C:\Users\wywyw\AppData\Local\Temp\ccb5ZNxs.o
                0x08000178                __libc_init_array
 *(.glue_7)
 .glue_7        0x0800017a        0x0 linker stubs
 *(.glue_7t)
 .glue_7t       0x0800017a        0x0 linker stubs
 *(.eh_frame)
 *(.init)
 *(.fini)
                0x0800017c                        . = ALIGN (0x4)
 *fill*         0x0800017a        0x2 
                0x0800017c                        _etext = .

.vfp11_veneer   0x0800017c        0x0
 .vfp11_veneer  0x0800017c        0x0 linker stubs

.v4_bx          0x0800017c        0x0
 .v4_bx         0x0800017c        0x0 linker stubs

.iplt           0x0800017c        0x0
 .iplt          0x0800017c        0x0 C:\Users\wywyw\AppData\Local\Temp\ccU6rhqY.o

.rel.dyn        0x0800017c        0x0
 .rel.iplt      0x0800017c        0x0 C:\Users\wywyw\AppData\Local\Temp\ccU6rhqY.o

.rodata         0x0800017c        0x0
                0x0800017c                        . = ALIGN (0x4)
 *(.rodata)
 *(.rodata*)
                0x0800017c                        . = ALIGN (0x4)

.ARM.extab
 *(.ARM.extab* .gnu.linkonce.armextab.*)

.ARM            0x0800017c        0x0
                0x0800017c                        __exidx_start = .
 *(.ARM.exidx*)
                0x0800017c                        __exidx_end = .

.preinit_array  0x0800017c        0x0
                [!provide]                        PROVIDE (__preinit_array_start = .)
 *(.preinit_array*)
                [!provide]                        PROVIDE (__preinit_array_end = .)

.init_array     0x0800017c        0x0
                [!provide]                        PROVIDE (__init_array_start = .)
 *(SORT_BY_NAME(.init_array.*))
 *(.init_array*)
                [!provide]                        PROVIDE (__init_array_end = .)

.fini_array     0x0800017c        0x0
                [!provide]                        PROVIDE (__fini_array_start = .)
 *(SORT_BY_NAME(.fini_array.*))
 *(.fini_array*)
                [!provide]                        PROVIDE (__fini_array_end = .)
                0x0800017c                        _sidata = LOADADDR (.data)

.data           0x20000000        0x0 load address 0x0800017c
                0x20000000                        . = ALIGN (0x4)
                0x20000000                        _sdata = .
 *(.data)
 *(.data*)
                0x20000000                        . = ALIGN (0x4)
                0x20000000                        _edata = .

.igot.plt       0x20000000        0x0 load address 0x0800017c
 .igot.plt      0x20000000        0x0 C:\Users\wywyw\AppData\Local\Temp\ccU6rhqY.o
                0x20000000                        . = ALIGN (0x4)

.bss            0x20000000        0x0 load address 0x0800017c
                0x20000000                        _sbss = .
                0x20000000                        __bss_start__ = _sbss
 *(.bss)
 *(.bss*)
 *(COMMON)
                0x20000000                        . = ALIGN (0x4)
                0x20000000                        _ebss = .
                0x20000000                        __bss_end__ = _ebss

._user_heap_stack
                0x20000000      0x400 load address 0x0800017c
                0x20000000                        . = ALIGN (0x4)
                [!provide]                        PROVIDE (end = .)
                [!provide]                        PROVIDE (_end = .)
                0x20000000                        . = (. + _Min_Heap_Size)
                0x20000400                        . = (. + _Min_Stack_Size)
 *fill*         0x20000000      0x400 
                0x20000400                        . = ALIGN (0x4)

/DISCARD/
 libc.a(*)
 libm.a(*)
 libgcc.a(*)

.ARM.attributes
                0x00000000       0x2f
 *(.ARM.attributes)
 .ARM.attributes
                0x00000000       0x21 C:\Users\wywyw\AppData\Local\Temp\ccU6rhqY.o
 .ARM.attributes
                0x00000021       0x2d C:\Users\wywyw\AppData\Local\Temp\ccb5ZNxs.o
OUTPUT(build\robot_dog_led.elf elf32-littlearm)
LOAD linker stubs
LOAD C:/ST/STM32CubeIDE_1.19.0/STM32CubeIDE/plugins/com.st.stm32cube.ide.mcu.externaltools.gnu-tools-for-stm32.13.3.rel1.win32_1.0.0.202411081344/tools/bin/../lib/gcc/arm-none-eabi/13.3.1/../../../../arm-none-eabi/lib/thumb/v7-m/nofp\libc.a
LOAD C:/ST/STM32CubeIDE_1.19.0/STM32CubeIDE/plugins/com.st.stm32cube.ide.mcu.externaltools.gnu-tools-for-stm32.13.3.rel1.win32_1.0.0.202411081344/tools/bin/../lib/gcc/arm-none-eabi/13.3.1/../../../../arm-none-eabi/lib/thumb/v7-m/nofp\libm.a
LOAD C:/ST/STM32CubeIDE_1.19.0/STM32CubeIDE/plugins/com.st.stm32cube.ide.mcu.externaltools.gnu-tools-for-stm32.13.3.rel1.win32_1.0.0.202411081344/tools/bin/../lib/gcc/arm-none-eabi/13.3.1/thumb/v7-m/nofp\libgcc.a

.debug_line     0x00000000      0x324
 .debug_line    0x00000000       0x71 C:\Users\wywyw\AppData\Local\Temp\ccU6rhqY.o
 .debug_line    0x00000071      0x2b3 C:\Users\wywyw\AppData\Local\Temp\ccb5ZNxs.o

.debug_line_str
                0x00000000       0x41
 .debug_line_str
                0x00000000       0x41 C:\Users\wywyw\AppData\Local\Temp\ccU6rhqY.o

.debug_info     0x00000000      0x16f
 .debug_info    0x00000000       0x30 C:\Users\wywyw\AppData\Local\Temp\ccU6rhqY.o
 .debug_info    0x00000030      0x13f C:\Users\wywyw\AppData\Local\Temp\ccb5ZNxs.o

.debug_abbrev   0x00000000       0xc7
 .debug_abbrev  0x00000000       0x24 C:\Users\wywyw\AppData\Local\Temp\ccU6rhqY.o
 .debug_abbrev  0x00000024       0xa3 C:\Users\wywyw\AppData\Local\Temp\ccb5ZNxs.o

.debug_aranges  0x00000000       0x50
 .debug_aranges
                0x00000000       0x28 C:\Users\wywyw\AppData\Local\Temp\ccU6rhqY.o
 .debug_aranges
                0x00000028       0x28 C:\Users\wywyw\AppData\Local\Temp\ccb5ZNxs.o

.debug_str      0x00000000      0x1c2
 .debug_str     0x00000000      0x1c2 C:\Users\wywyw\AppData\Local\Temp\ccU6rhqY.o
                                 0x5d (size before relaxing)
 .debug_str     0x000001c2      0x1cd C:\Users\wywyw\AppData\Local\Temp\ccb5ZNxs.o

.debug_rnglists
                0x00000000       0x32
 .debug_rnglists
                0x00000000       0x19 C:\Users\wywyw\AppData\Local\Temp\ccU6rhqY.o
 .debug_rnglists
                0x00000019       0x19 C:\Users\wywyw\AppData\Local\Temp\ccb5ZNxs.o

.comment        0x00000000       0x43
 .comment       0x00000000       0x43 C:\Users\wywyw\AppData\Local\Temp\ccb5ZNxs.o
                                 0x44 (size before relaxing)

.debug_frame    0x00000000       0x30
 .debug_frame   0x00000000       0x30 C:\Users\wywyw\AppData\Local\Temp\ccb5ZNxs.o

Cross Reference Table

Symbol                                            File
ADC1_2_IRQHandler                                 C:\Users\wywyw\AppData\Local\Temp\ccU6rhqY.o
BusFault_Handler                                  C:\Users\wywyw\AppData\Local\Temp\ccU6rhqY.o
CAN1_RX1_IRQHandler                               C:\Users\wywyw\AppData\Local\Temp\ccU6rhqY.o
CAN1_SCE_IRQHandler                               C:\Users\wywyw\AppData\Local\Temp\ccU6rhqY.o
DMA1_Channel1_IRQHandler                          C:\Users\wywyw\AppData\Local\Temp\ccU6rhqY.o
DMA1_Channel2_IRQHandler                          C:\Users\wywyw\AppData\Local\Temp\ccU6rhqY.o
DMA1_Channel3_IRQHandler                          C:\Users\wywyw\AppData\Local\Temp\ccU6rhqY.o
DMA1_Channel4_IRQHandler                          C:\Users\wywyw\AppData\Local\Temp\ccU6rhqY.o
DMA1_Channel5_IRQHandler                          C:\Users\wywyw\AppData\Local\Temp\ccU6rhqY.o
DMA1_Channel6_IRQHandler                          C:\Users\wywyw\AppData\Local\Temp\ccU6rhqY.o
DMA1_Channel7_IRQHandler                          C:\Users\wywyw\AppData\Local\Temp\ccU6rhqY.o
DebugMon_Handler                                  C:\Users\wywyw\AppData\Local\Temp\ccU6rhqY.o
Default_Handler                                   C:\Users\wywyw\AppData\Local\Temp\ccU6rhqY.o
EXTI0_IRQHandler                                  C:\Users\wywyw\AppData\Local\Temp\ccU6rhqY.o
EXTI15_10_IRQHandler                              C:\Users\wywyw\AppData\Local\Temp\ccU6rhqY.o
EXTI1_IRQHandler                                  C:\Users\wywyw\AppData\Local\Temp\ccU6rhqY.o
EXTI2_IRQHandler                                  C:\Users\wywyw\AppData\Local\Temp\ccU6rhqY.o
EXTI3_IRQHandler                                  C:\Users\wywyw\AppData\Local\Temp\ccU6rhqY.o
EXTI4_IRQHandler                                  C:\Users\wywyw\AppData\Local\Temp\ccU6rhqY.o
EXTI9_5_IRQHandler                                C:\Users\wywyw\AppData\Local\Temp\ccU6rhqY.o
FLASH_IRQHandler                                  C:\Users\wywyw\AppData\Local\Temp\ccU6rhqY.o
HardFault_Handler                                 C:\Users\wywyw\AppData\Local\Temp\ccU6rhqY.o
I2C1_ER_IRQHandler                                C:\Users\wywyw\AppData\Local\Temp\ccU6rhqY.o
I2C1_EV_IRQHandler                                C:\Users\wywyw\AppData\Local\Temp\ccU6rhqY.o
I2C2_ER_IRQHandler                                C:\Users\wywyw\AppData\Local\Temp\ccU6rhqY.o
I2C2_EV_IRQHandler                                C:\Users\wywyw\AppData\Local\Temp\ccU6rhqY.o
MemManage_Handler                                 C:\Users\wywyw\AppData\Local\Temp\ccU6rhqY.o
NMI_Handler                                       C:\Users\wywyw\AppData\Local\Temp\ccU6rhqY.o
PVD_IRQHandler                                    C:\Users\wywyw\AppData\Local\Temp\ccU6rhqY.o
PendSV_Handler                                    C:\Users\wywyw\AppData\Local\Temp\ccU6rhqY.o
RCC_IRQHandler                                    C:\Users\wywyw\AppData\Local\Temp\ccU6rhqY.o
RTC_Alarm_IRQHandler                              C:\Users\wywyw\AppData\Local\Temp\ccU6rhqY.o
RTC_IRQHandler                                    C:\Users\wywyw\AppData\Local\Temp\ccU6rhqY.o
Reset_Handler                                     C:\Users\wywyw\AppData\Local\Temp\ccU6rhqY.o
SPI1_IRQHandler                                   C:\Users\wywyw\AppData\Local\Temp\ccU6rhqY.o
SPI2_IRQHandler                                   C:\Users\wywyw\AppData\Local\Temp\ccU6rhqY.o
SVC_Handler                                       C:\Users\wywyw\AppData\Local\Temp\ccU6rhqY.o
SysTick_Handler                                   C:\Users\wywyw\AppData\Local\Temp\ccU6rhqY.o
SystemCoreClock                                   C:\Users\wywyw\AppData\Local\Temp\ccb5ZNxs.o
SystemInit                                        C:\Users\wywyw\AppData\Local\Temp\ccb5ZNxs.o
                                                  C:\Users\wywyw\AppData\Local\Temp\ccU6rhqY.o
TAMPER_IRQHandler                                 C:\Users\wywyw\AppData\Local\Temp\ccU6rhqY.o
TIM1_BRK_IRQHandler                               C:\Users\wywyw\AppData\Local\Temp\ccU6rhqY.o
TIM1_CC_IRQHandler                                C:\Users\wywyw\AppData\Local\Temp\ccU6rhqY.o
TIM1_TRG_COM_IRQHandler                           C:\Users\wywyw\AppData\Local\Temp\ccU6rhqY.o
TIM1_UP_IRQHandler                                C:\Users\wywyw\AppData\Local\Temp\ccU6rhqY.o
TIM2_IRQHandler                                   C:\Users\wywyw\AppData\Local\Temp\ccU6rhqY.o
TIM3_IRQHandler                                   C:\Users\wywyw\AppData\Local\Temp\ccU6rhqY.o
TIM4_IRQHandler                                   C:\Users\wywyw\AppData\Local\Temp\ccU6rhqY.o
USART1_IRQHandler                                 C:\Users\wywyw\AppData\Local\Temp\ccU6rhqY.o
USART2_IRQHandler                                 C:\Users\wywyw\AppData\Local\Temp\ccU6rhqY.o
USART3_IRQHandler                                 C:\Users\wywyw\AppData\Local\Temp\ccU6rhqY.o
USBWakeUp_IRQHandler                              C:\Users\wywyw\AppData\Local\Temp\ccU6rhqY.o
USB_HP_CAN1_TX_IRQHandler                         C:\Users\wywyw\AppData\Local\Temp\ccU6rhqY.o
USB_LP_CAN1_RX0_IRQHandler                        C:\Users\wywyw\AppData\Local\Temp\ccU6rhqY.o
UsageFault_Handler                                C:\Users\wywyw\AppData\Local\Temp\ccU6rhqY.o
WWDG_IRQHandler                                   C:\Users\wywyw\AppData\Local\Temp\ccU6rhqY.o
__libc_init_array                                 C:\Users\wywyw\AppData\Local\Temp\ccb5ZNxs.o
                                                  C:\Users\wywyw\AppData\Local\Temp\ccU6rhqY.o
_ebss                                             C:\Users\wywyw\AppData\Local\Temp\ccU6rhqY.o
_edata                                            C:\Users\wywyw\AppData\Local\Temp\ccU6rhqY.o
_estack                                           C:\Users\wywyw\AppData\Local\Temp\ccU6rhqY.o
_sbss                                             C:\Users\wywyw\AppData\Local\Temp\ccU6rhqY.o
_sdata                                            C:\Users\wywyw\AppData\Local\Temp\ccU6rhqY.o
_sidata                                           C:\Users\wywyw\AppData\Local\Temp\ccU6rhqY.o
g_pfnVectors                                      C:\Users\wywyw\AppData\Local\Temp\ccU6rhqY.o
main                                              C:\Users\wywyw\AppData\Local\Temp\ccU6rhqY.o
